target datalayout = "e-m:e-p270:32:32-p271:32:32-p272:64:64-i64:64-i128:128-f80:128-n8:16:32:64-S128"
target triple = "x86_64-pc-linux-gnu"

@.str.53 = private unnamed_addr constant [31 x i8] c"../openssl/test/evp_kdf_test.c\00", align 1
@.str.60 = private unnamed_addr constant [7 x i8] c"sha256\00", align 1
@.str.62 = private unnamed_addr constant [7 x i8] c"params\00", align 1
@.str.65 = private unnamed_addr constant [37 x i8] c"EVP_KDF_CTX_set_params(kctx, params)\00", align 1
@.str.67 = private unnamed_addr constant [2 x i8] c"0\00", align 1
@.str.82 = private unnamed_addr constant [6 x i8] c"KBKDF\00", align 1
@.str.83 = private unnamed_addr constant [5 x i8] c"kctx\00", align 1
@.str.89 = private unnamed_addr constant [5 x i8] c"HMAC\00", align 1
@.str.90 = private unnamed_addr constant [4 x i8] c"prf\00", align 1
@.str.91 = private unnamed_addr constant [5 x i8] c"test\00", align 1
@test_kdf_kbkdf_empty_key.key = internal global [1 x i8] c"\01", align 1
@.str.96 = private unnamed_addr constant [51 x i8] c"EVP_KDF_derive(kctx, result, sizeof(result), NULL)\00", align 1

; Function Attrs: nounwind uwtable
define internal ptr @get_kdfbyname_libctx(ptr noundef %0, ptr noundef %1) #0 {
  %3 = alloca ptr, align 8
  %4 = alloca ptr, align 8
  %5 = alloca ptr, align 8
  %6 = alloca ptr, align 8
  store ptr %0, ptr %3, align 8, !tbaa !11
  store ptr %1, ptr %4, align 8, !tbaa !18
  call void @llvm.lifetime.start.p0(i64 8, ptr %5) #6
  %7 = load ptr, ptr %3, align 8, !tbaa !11
  %8 = load ptr, ptr %4, align 8, !tbaa !18
  %9 = call ptr @EVP_KDF_fetch(ptr noundef %7, ptr noundef %8, ptr noundef null)
  store ptr %9, ptr %5, align 8, !tbaa !26
  call void @llvm.lifetime.start.p0(i64 8, ptr %6) #6
  %10 = load ptr, ptr %5, align 8, !tbaa !26
  %11 = call ptr @EVP_KDF_CTX_new(ptr noundef %10)
  store ptr %11, ptr %6, align 8, !tbaa !8
  %12 = load ptr, ptr %5, align 8, !tbaa !26
  call void @EVP_KDF_free(ptr noundef %12)
  %13 = load ptr, ptr %6, align 8, !tbaa !8
  call void @llvm.lifetime.end.p0(i64 8, ptr %6) #6
  call void @llvm.lifetime.end.p0(i64 8, ptr %5) #6
  ret ptr %13
}

; Function Attrs: nounwind uwtable
define internal ptr @get_kdfbyname(ptr noundef %0) #0 {
  %2 = alloca ptr, align 8
  store ptr %0, ptr %2, align 8, !tbaa !18
  %3 = load ptr, ptr %2, align 8, !tbaa !18
  %4 = call ptr @get_kdfbyname_libctx(ptr noundef null, ptr noundef %3)
  ret ptr %4
}

; Function Attrs: nounwind uwtable
define internal i32 @test_kdf_kbkdf_empty_key() #0 {
  %1 = alloca i32, align 4
  %2 = alloca i32, align 4
  %3 = alloca ptr, align 8
  %4 = alloca ptr, align 8
  %5 = alloca [32 x i8], align 16
  %6 = alloca i32, align 4
  %7 = alloca i32, align 4
  call void @llvm.lifetime.start.p0(i64 4, ptr %2) #6
  call void @llvm.lifetime.start.p0(i64 8, ptr %3) #6
  call void @llvm.lifetime.start.p0(i64 8, ptr %4) #6
  call void @llvm.lifetime.start.p0(i64 32, ptr %5) #6
  call void @llvm.memset.p0.i64(ptr align 16 %5, i8 0, i64 32, i1 false)
  call void @llvm.lifetime.start.p0(i64 4, ptr %6) #6
  store i32 32, ptr %6, align 4, !tbaa !4
  %8 = call ptr @construct_kbkdf_params(ptr noundef @.str.60, ptr noundef @.str.89, ptr noundef @test_kdf_kbkdf_empty_key.key, i64 noundef 0, ptr noundef @.str.90, ptr noundef @.str.91, ptr noundef %6)
  store ptr %8, ptr %4, align 8, !tbaa !13
  %9 = load ptr, ptr %4, align 8, !tbaa !13
  %10 = call i32 @test_ptr(ptr noundef @.str.53, i32 noundef 1234, ptr noundef @.str.62, ptr noundef %9)
  %11 = icmp ne i32 %10, 0
  br i1 %11, label %13, label %12

12:                                               ; preds = %0
  store i32 0, ptr %1, align 4
  store i32 1, ptr %7, align 4
  br label %38

13:                                               ; preds = %0
  %14 = call ptr @get_kdfbyname(ptr noundef @.str.82)
  store ptr %14, ptr %3, align 8, !tbaa !8
  %15 = load ptr, ptr %3, align 8, !tbaa !8
  %16 = call i32 @test_ptr(ptr noundef @.str.53, i32 noundef 1239, ptr noundef @.str.83, ptr noundef %15)
  %17 = icmp ne i32 %16, 0
  br i1 %17, label %18, label %32

18:                                               ; preds = %13
  %19 = load ptr, ptr %3, align 8, !tbaa !8
  %20 = load ptr, ptr %4, align 8, !tbaa !13
  %21 = call i32 @EVP_KDF_CTX_set_params(ptr noundef %19, ptr noundef %20)
  %22 = icmp ne i32 %21, 0
  %23 = zext i1 %22 to i32
  %24 = call i32 @test_true(ptr noundef @.str.53, i32 noundef 1240, ptr noundef @.str.65, i32 noundef %23)
  %25 = icmp ne i32 %24, 0
  br i1 %25, label %26, label %32

26:                                               ; preds = %18
  %27 = load ptr, ptr %3, align 8, !tbaa !8
  %28 = getelementptr inbounds [32 x i8], ptr %5, i64 0, i64 0
  %29 = call i32 @EVP_KDF_derive(ptr noundef %27, ptr noundef %28, i64 noundef 32, ptr noundef null)
  %30 = call i32 @test_int_eq(ptr noundef @.str.53, i32 noundef 1241, ptr noundef @.str.96, ptr noundef @.str.67, i32 noundef %29, i32 noundef 0)
  %31 = icmp ne i32 %30, 0
  br label %32

32:                                               ; preds = %26, %18, %13
  %33 = phi i1 [ false, %18 ], [ false, %13 ], [ %31, %26 ]
  %34 = zext i1 %33 to i32
  store i32 %34, ptr %2, align 4, !tbaa !4
  %35 = load ptr, ptr %3, align 8, !tbaa !8
  call void @EVP_KDF_CTX_free(ptr noundef %35)
  %36 = load ptr, ptr %4, align 8, !tbaa !13
  call void @CRYPTO_free(ptr noundef %36, ptr noundef @.str.53, i32 noundef 1244)
  %37 = load i32, ptr %2, align 4, !tbaa !4
  store i32 %37, ptr %1, align 4
  store i32 1, ptr %7, align 4
  br label %38

38:                                               ; preds = %32, %12
  call void @llvm.lifetime.end.p0(i64 4, ptr %6) #6
  call void @llvm.lifetime.end.p0(i64 32, ptr %5) #6
  call void @llvm.lifetime.end.p0(i64 8, ptr %4) #6
  call void @llvm.lifetime.end.p0(i64 8, ptr %3) #6
  call void @llvm.lifetime.end.p0(i64 4, ptr %2) #6
  %39 = load i32, ptr %1, align 4
  ret i32 %39
}